; Function Attrs: mustprogress uwtable
define dso_local void @_ZNK4pbrt18FunctionIntegrator8ToStringB5cxx11Ev(ptr noalias nonnull sret(%"class.std::__cxx11::basic_string") align 8 %agg.result, ptr noundef nonnull align 8 dereferenceable(184) %this) unnamed_addr #1 align 2 personality ptr @__gxx_personality_v0 {
entry:
  %outputFilename = getelementptr inbounds i8, ptr %this, i64 96
  %camera = getelementptr inbounds i8, ptr %this, i64 128
  %baseSampler = getelementptr inbounds i8, ptr %this, i64 136
  tail call void @_ZNSt7__cxx1112basic_stringIcSt11char_traitsIcESaIcEEC1Ev(ptr noundef nonnull align 8 dereferenceable(32) %agg.result) #31
  invoke void @_ZN4pbrt6detail21stringPrintfRecursiveIRKNSt7__cxx1112basic_stringIcSt11char_traitsIcESaIcEEEJRKNS_6CameraERKNS_7SamplerEEEEvPS7_PKcOT_DpOT0_(ptr noundef nonnull %agg.result, ptr noundef nonnull @.str.107, ptr noundef nonnull align 8 dereferenceable(32) %outputFilename, ptr noundef nonnull align 8 dereferenceable(8) %camera, ptr noundef nonnull align 8 dereferenceable(8) %baseSampler)
          to label %_ZN4pbrt12StringPrintfIJRKNSt7__cxx1112basic_stringIcSt11char_traitsIcESaIcEEERKNS_6CameraERKNS_7SamplerEEEES6_PKcDpOT_.exit unwind label %lpad.i

lpad.i:                                           ; preds = %entry
  %0 = landingpad { ptr, i32 }
          cleanup
  tail call void @_ZNSt7__cxx1112basic_stringIcSt11char_traitsIcESaIcEED1Ev(ptr noundef nonnull align 8 dereferenceable(32) %agg.result) #31
  resume { ptr, i32 } %0

_ZN4pbrt12StringPrintfIJRKNSt7__cxx1112basic_stringIcSt11char_traitsIcESaIcEEERKNS_6CameraERKNS_7SamplerEEEES6_PKcDpOT_.exit: ; preds = %entry
  ret void
}